target datalayout = "e-m:e-p270:32:32-p271:32:32-p272:64:64-i64:64-i128:128-f80:128-n8:16:32:64-S128"
target triple = "x86_64-pc-linux-gnu"

%struct.lua_State = type { i8, i8, i8, i8, i8, i8, i8, ptr, ptr, ptr, ptr, ptr, ptr, ptr, ptr, i32, i32, i16, i16, i32, ptr, ptr, ptr, ptr, ptr }
%struct.lua_TValue = type { %union.Value, [1 x i32], i32 }
%union.Value = type { ptr }
%struct.LuaTable = type { i8, i8, i8, i8, i8, i8, i8, i8, i32, %union.anon.2, ptr, ptr, ptr, ptr }
%union.anon.2 = type { i32 }

@.str.23 = private unnamed_addr constant [2 x i8] c"n\00", align 1

; Function Attrs: mustprogress uwtable
define internal noundef i32 @_ZL5tpackP9lua_State(ptr noundef %0) #0 {
  %2 = alloca ptr, align 8
  %3 = alloca i32, align 4
  %4 = alloca ptr, align 8
  %5 = alloca i32, align 4
  %6 = alloca ptr, align 8
  %7 = alloca ptr, align 8
  %8 = alloca ptr, align 8
  %9 = alloca ptr, align 8
  %10 = alloca ptr, align 8
  store ptr %0, ptr %2, align 8, !tbaa !4
  call void @llvm.lifetime.start.p0(i64 4, ptr %3) #7
  %11 = load ptr, ptr %2, align 8, !tbaa !4
  %12 = call noundef i32 @_Z10lua_gettopP9lua_State(ptr noundef %11)
  store i32 %12, ptr %3, align 4, !tbaa !23
  %13 = load ptr, ptr %2, align 8, !tbaa !4
  %14 = load i32, ptr %3, align 4, !tbaa !23
  call void @_Z15lua_createtableP9lua_Stateii(ptr noundef %13, i32 noundef %14, i32 noundef 1)
  call void @llvm.lifetime.start.p0(i64 8, ptr %4) #7
  %15 = load ptr, ptr %2, align 8, !tbaa !4
  %16 = getelementptr inbounds nuw %struct.lua_State, ptr %15, i32 0, i32 7
  %17 = load ptr, ptr %16, align 8, !tbaa !29
  %18 = getelementptr inbounds %struct.lua_TValue, ptr %17, i64 -1
  %19 = getelementptr inbounds nuw %struct.lua_TValue, ptr %18, i32 0, i32 0
  %20 = load ptr, ptr %19, align 8, !tbaa !21
  store ptr %20, ptr %4, align 8, !tbaa !22
  call void @llvm.lifetime.start.p0(i64 4, ptr %5) #7
  store i32 0, ptr %5, align 4, !tbaa !23
  br label %21

21:                                               ; preds = %42, %1
  %22 = load i32, ptr %5, align 4, !tbaa !23
  %23 = load i32, ptr %3, align 4, !tbaa !23
  %24 = icmp slt i32 %22, %23
  br i1 %24, label %26, label %25

25:                                               ; preds = %21
  call void @llvm.lifetime.end.p0(i64 4, ptr %5) #7
  br label %45

26:                                               ; preds = %21
  call void @llvm.lifetime.start.p0(i64 8, ptr %6) #7
  %27 = load ptr, ptr %4, align 8, !tbaa !22
  %28 = getelementptr inbounds nuw %struct.LuaTable, ptr %27, i32 0, i32 11
  %29 = load ptr, ptr %28, align 8, !tbaa !27
  %30 = load i32, ptr %5, align 4, !tbaa !23
  %31 = sext i32 %30 to i64
  %32 = getelementptr inbounds %struct.lua_TValue, ptr %29, i64 %31
  store ptr %32, ptr %6, align 8, !tbaa !28
  call void @llvm.lifetime.start.p0(i64 8, ptr %7) #7
  %33 = load ptr, ptr %2, align 8, !tbaa !4
  %34 = getelementptr inbounds nuw %struct.lua_State, ptr %33, i32 0, i32 8
  %35 = load ptr, ptr %34, align 8, !tbaa !9
  %36 = load i32, ptr %5, align 4, !tbaa !23
  %37 = sext i32 %36 to i64
  %38 = getelementptr inbounds %struct.lua_TValue, ptr %35, i64 %37
  store ptr %38, ptr %7, align 8, !tbaa !28
  call void @llvm.lifetime.start.p0(i64 8, ptr %8) #7
  %39 = load ptr, ptr %6, align 8, !tbaa !28
  store ptr %39, ptr %8, align 8, !tbaa !28
  %40 = load ptr, ptr %7, align 8, !tbaa !28
  %41 = load ptr, ptr %8, align 8, !tbaa !28
  call void @llvm.memcpy.p0.p0.i64(ptr align 8 %41, ptr align 8 %40, i64 16, i1 false), !tbaa.struct !30
  call void @llvm.lifetime.end.p0(i64 8, ptr %8) #7
  call void @llvm.lifetime.end.p0(i64 8, ptr %7) #7
  call void @llvm.lifetime.end.p0(i64 8, ptr %6) #7
  br label %42

42:                                               ; preds = %26
  %43 = load i32, ptr %5, align 4, !tbaa !23
  %44 = add nsw i32 %43, 1
  store i32 %44, ptr %5, align 4, !tbaa !23
  br label %21, !llvm.loop !55

45:                                               ; preds = %25
  call void @llvm.lifetime.start.p0(i64 8, ptr %9) #7
  %46 = load ptr, ptr %2, align 8, !tbaa !4
  %47 = load ptr, ptr %4, align 8, !tbaa !22
  %48 = load ptr, ptr %2, align 8, !tbaa !4
  %49 = call noundef ptr @_Z12luaS_newlstrP9lua_StatePKcm(ptr noundef %48, ptr noundef @.str.23, i64 noundef 1)
  %50 = call noundef ptr @_Z11luaH_setstrP9lua_StateP8LuaTableP7TString(ptr noundef %46, ptr noundef %47, ptr noundef %49)
  store ptr %50, ptr %9, align 8, !tbaa !28
  call void @llvm.lifetime.start.p0(i64 8, ptr %10) #7
  %51 = load ptr, ptr %9, align 8, !tbaa !28
  store ptr %51, ptr %10, align 8, !tbaa !28
  %52 = load i32, ptr %3, align 4, !tbaa !23
  %53 = sitofp i32 %52 to double
  %54 = load ptr, ptr %10, align 8, !tbaa !28
  %55 = getelementptr inbounds nuw %struct.lua_TValue, ptr %54, i32 0, i32 0
  store double %53, ptr %55, align 8, !tbaa !21
  %56 = load ptr, ptr %10, align 8, !tbaa !28
  %57 = getelementptr inbounds nuw %struct.lua_TValue, ptr %56, i32 0, i32 2
  store i32 3, ptr %57, align 4, !tbaa !43
  call void @llvm.lifetime.end.p0(i64 8, ptr %10) #7
  call void @llvm.lifetime.end.p0(i64 8, ptr %9) #7
  call void @llvm.lifetime.end.p0(i64 8, ptr %4) #7
  call void @llvm.lifetime.end.p0(i64 4, ptr %3) #7
  ret i32 1
}