; Function Attrs: mustprogress uwtable
define internal noundef i32 @_ZL5tpackP9lua_State(ptr noundef %0) #0 {
  %2 = tail call noundef i32 @_Z10lua_gettopP9lua_State(ptr noundef %0)
  tail call void @_Z15lua_createtableP9lua_Stateii(ptr noundef %0, i32 noundef %2, i32 noundef 1)
  %3 = getelementptr inbounds nuw i8, ptr %0, i64 8
  %4 = load ptr, ptr %3, align 8, !tbaa !24
  %5 = getelementptr inbounds i8, ptr %4, i64 -16
  %6 = load ptr, ptr %5, align 8, !tbaa !19
  %7 = icmp sgt i32 %2, 0
  br i1 %7, label %.lr.ph, label %._crit_edge

.lr.ph:                                           ; preds = %1
  %8 = getelementptr inbounds nuw i8, ptr %6, i64 24
  %9 = getelementptr inbounds nuw i8, ptr %0, i64 16
  %wide.trip.count = zext nneg i32 %2 to i64
  br label %14

._crit_edge:                                      ; preds = %14, %1
  %10 = tail call noundef ptr @_Z12luaS_newlstrP9lua_StatePKcm(ptr noundef nonnull %0, ptr noundef nonnull @.str.23, i64 noundef 1)
  %11 = tail call noundef ptr @_Z11luaH_setstrP9lua_StateP8LuaTableP7TString(ptr noundef nonnull %0, ptr noundef %6, ptr noundef %10)
  %12 = sitofp i32 %2 to double
  store double %12, ptr %11, align 8, !tbaa !19
  %13 = getelementptr inbounds nuw i8, ptr %11, i64 12
  store i32 3, ptr %13, align 4, !tbaa !37
  ret i32 1

14:                                               ; preds = %.lr.ph, %14
  %indvars.iv = phi i64 [ 0, %.lr.ph ], [ %indvars.iv.next, %14 ]
  %15 = load ptr, ptr %8, align 8, !tbaa !23
  %16 = getelementptr inbounds nuw %struct.lua_TValue, ptr %15, i64 %indvars.iv
  %17 = load ptr, ptr %9, align 8, !tbaa !4
  %18 = getelementptr inbounds nuw %struct.lua_TValue, ptr %17, i64 %indvars.iv
  tail call void @llvm.memcpy.p0.p0.i64(ptr noundef nonnull align 8 dereferenceable(16) %16, ptr noundef nonnull align 8 dereferenceable(16) %18, i64 16, i1 false), !tbaa.struct !25
  %indvars.iv.next = add nuw nsw i64 %indvars.iv, 1
  %exitcond.not = icmp eq i64 %indvars.iv.next, %wide.trip.count
  br i1 %exitcond.not, label %._crit_edge, label %14, !llvm.loop !45
}